target datalayout = "e-m:e-p270:32:32-p271:32:32-p272:64:64-i64:64-i128:128-f80:128-n8:16:32:64-S128"
target triple = "x86_64-pc-linux-gnu"

%struct.HeapTupleData = type { i32, %struct.ItemPointerData, i32, ptr }
%struct.ItemPointerData = type { %struct.BlockIdData, i16 }
%struct.BlockIdData = type { i16, i16 }

; Function Attrs: nounwind uwtable
define dso_local ptr @heap_copytuple(ptr noundef %0) #0 {
  %2 = alloca ptr, align 8
  %3 = alloca ptr, align 8
  %4 = alloca ptr, align 8
  %5 = alloca i32, align 4
  store ptr %0, ptr %3, align 8
  call void @llvm.lifetime.start.p0(i64 8, ptr %4) #8
  %6 = load ptr, ptr %3, align 8
  %7 = icmp ne ptr %6, null
  br i1 %7, label %8, label %13

8:                                                ; preds = %1
  %9 = load ptr, ptr %3, align 8
  %10 = getelementptr inbounds nuw %struct.HeapTupleData, ptr %9, i32 0, i32 3
  %11 = load ptr, ptr %10, align 8
  %12 = icmp eq ptr %11, null
  br i1 %12, label %13, label %14

13:                                               ; preds = %8, %1
  store ptr null, ptr %2, align 8
  store i32 1, ptr %5, align 4
  br label %50

14:                                               ; preds = %8
  %15 = load ptr, ptr %3, align 8
  %16 = getelementptr inbounds nuw %struct.HeapTupleData, ptr %15, i32 0, i32 0
  %17 = load i32, ptr %16, align 8
  %18 = zext i32 %17 to i64
  %19 = add i64 24, %18
  %20 = call ptr @palloc(i64 noundef %19)
  store ptr %20, ptr %4, align 8
  %21 = load ptr, ptr %3, align 8
  %22 = getelementptr inbounds nuw %struct.HeapTupleData, ptr %21, i32 0, i32 0
  %23 = load i32, ptr %22, align 8
  %24 = load ptr, ptr %4, align 8
  %25 = getelementptr inbounds nuw %struct.HeapTupleData, ptr %24, i32 0, i32 0
  store i32 %23, ptr %25, align 8
  %26 = load ptr, ptr %4, align 8
  %27 = getelementptr inbounds nuw %struct.HeapTupleData, ptr %26, i32 0, i32 1
  %28 = load ptr, ptr %3, align 8
  %29 = getelementptr inbounds nuw %struct.HeapTupleData, ptr %28, i32 0, i32 1
  call void @llvm.memcpy.p0.p0.i64(ptr align 4 %27, ptr align 4 %29, i64 6, i1 false)
  %30 = load ptr, ptr %3, align 8
  %31 = getelementptr inbounds nuw %struct.HeapTupleData, ptr %30, i32 0, i32 2
  %32 = load i32, ptr %31, align 4
  %33 = load ptr, ptr %4, align 8
  %34 = getelementptr inbounds nuw %struct.HeapTupleData, ptr %33, i32 0, i32 2
  store i32 %32, ptr %34, align 4
  %35 = load ptr, ptr %4, align 8
  %36 = getelementptr inbounds nuw i8, ptr %35, i64 24
  %37 = load ptr, ptr %4, align 8
  %38 = getelementptr inbounds nuw %struct.HeapTupleData, ptr %37, i32 0, i32 3
  store ptr %36, ptr %38, align 8
  %39 = load ptr, ptr %4, align 8
  %40 = getelementptr inbounds nuw %struct.HeapTupleData, ptr %39, i32 0, i32 3
  %41 = load ptr, ptr %40, align 8
  %42 = load ptr, ptr %3, align 8
  %43 = getelementptr inbounds nuw %struct.HeapTupleData, ptr %42, i32 0, i32 3
  %44 = load ptr, ptr %43, align 8
  %45 = load ptr, ptr %3, align 8
  %46 = getelementptr inbounds nuw %struct.HeapTupleData, ptr %45, i32 0, i32 0
  %47 = load i32, ptr %46, align 8
  %48 = zext i32 %47 to i64
  call void @llvm.memcpy.p0.p0.i64(ptr align 4 %41, ptr align 4 %44, i64 %48, i1 false)
  %49 = load ptr, ptr %4, align 8
  store ptr %49, ptr %2, align 8
  store i32 1, ptr %5, align 4
  br label %50

50:                                               ; preds = %14, %13
  call void @llvm.lifetime.end.p0(i64 8, ptr %4) #8
  %51 = load ptr, ptr %2, align 8
  ret ptr %51
}