; Function Attrs: nounwind uwtable
define dso_local noundef ptr @heap_copytuple(ptr noundef readonly captures(address_is_null) %0) local_unnamed_addr #0 {
  %.not = icmp eq ptr %0, null
  br i1 %.not, label %22, label %2

2:                                                ; preds = %1
  %3 = getelementptr inbounds nuw i8, ptr %0, i64 16
  %4 = load ptr, ptr %3, align 8
  %5 = icmp eq ptr %4, null
  br i1 %5, label %22, label %6

6:                                                ; preds = %2
  %7 = load i32, ptr %0, align 8
  %8 = zext i32 %7 to i64
  %9 = add nuw nsw i64 %8, 24
  %10 = tail call ptr @palloc(i64 noundef %9) #12
  %11 = load i32, ptr %0, align 8
  store i32 %11, ptr %10, align 8
  %12 = getelementptr inbounds nuw i8, ptr %10, i64 4
  %13 = getelementptr inbounds nuw i8, ptr %0, i64 4
  tail call void @llvm.memcpy.p0.p0.i64(ptr noundef nonnull align 4 dereferenceable(6) %12, ptr noundef nonnull align 4 dereferenceable(6) %13, i64 6, i1 false)
  %14 = getelementptr inbounds nuw i8, ptr %0, i64 12
  %15 = load i32, ptr %14, align 4
  %16 = getelementptr inbounds nuw i8, ptr %10, i64 12
  store i32 %15, ptr %16, align 4
  %17 = getelementptr inbounds nuw i8, ptr %10, i64 24
  %18 = getelementptr inbounds nuw i8, ptr %10, i64 16
  store ptr %17, ptr %18, align 8
  %19 = load ptr, ptr %3, align 8
  %20 = load i32, ptr %0, align 8
  %21 = zext i32 %20 to i64
  tail call void @llvm.memcpy.p0.p0.i64(ptr nonnull align 4 %17, ptr align 4 %19, i64 %21, i1 false)
  br label %22

22:                                               ; preds = %1, %2, %6
  %.0 = phi ptr [ %10, %6 ], [ null, %2 ], [ null, %1 ]
  ret ptr %.0
}